; ModuleID = '47/5691.cpp'
source_filename = "47/5691.cpp"
target datalayout = "e-m:e-p270:32:32-p271:32:32-p272:64:64-i64:64-f80:128-n8:16:32:64-S128"
target triple = "x86_64-pc-linux-gnu"

%"class.std::ios_base::Init" = type { i8 }
%"class.std::basic_istream" = type { i32 (...)**, i64, %"class.std::basic_ios" }
%"class.std::basic_ios" = type { %"class.std::ios_base", %"class.std::basic_ostream"*, i8, i8, %"class.std::basic_streambuf"*, %"class.std::ctype"*, %"class.std::num_put"*, %"class.std::num_get"* }
%"class.std::ios_base" = type { i32 (...)**, i64, i64, i32, i32, i32, %"struct.std::ios_base::_Callback_list"*, %"struct.std::ios_base::_Words", [8 x %"struct.std::ios_base::_Words"], i32, %"struct.std::ios_base::_Words"*, %"class.std::locale" }
%"struct.std::ios_base::_Callback_list" = type { %"struct.std::ios_base::_Callback_list"*, void (i32, %"class.std::ios_base"*, i32)*, i32, i32 }
%"struct.std::ios_base::_Words" = type { i8*, i64 }
%"class.std::locale" = type { %"class.std::locale::_Impl"* }
%"class.std::locale::_Impl" = type { i32, %"class.std::locale::facet"**, i64, %"class.std::locale::facet"**, i8** }
%"class.std::locale::facet" = type <{ i32 (...)**, i32, [4 x i8] }>
%"class.std::basic_ostream" = type { i32 (...)**, %"class.std::basic_ios" }
%"class.std::basic_streambuf" = type { i32 (...)**, i8*, i8*, i8*, i8*, i8*, i8*, %"class.std::locale" }
%"class.std::ctype" = type <{ %"class.std::locale::facet.base", [4 x i8], %struct.__locale_struct*, i8, [7 x i8], i32*, i32*, i16*, i8, [256 x i8], [256 x i8], i8, [6 x i8] }>
%"class.std::locale::facet.base" = type <{ i32 (...)**, i32 }>
%struct.__locale_struct = type { [13 x %struct.__locale_data*], i16*, i32*, i32*, [13 x i8*] }
%struct.__locale_data = type opaque
%"class.std::num_put" = type { %"class.std::locale::facet.base", [4 x i8] }
%"class.std::num_get" = type { %"class.std::locale::facet.base", [4 x i8] }

@_ZStL8__ioinit = internal global %"class.std::ios_base::Init" zeroinitializer, align 1
@__dso_handle = external hidden global i8
@_ZSt3cin = external dso_local global %"class.std::basic_istream", align 8
@_ZSt4cout = external dso_local global %"class.std::basic_ostream", align 8
@llvm.global_ctors = appending global [1 x { i32, void ()*, i8* }] [{ i32, void ()*, i8* } { i32 65535, void ()* @_GLOBAL__sub_I_5691.cpp, i8* null }]

; Function Attrs: noinline uwtable
define internal void @__cxx_global_var_init() #0 section ".text.startup" {
  call void @_ZNSt8ios_base4InitC1Ev(%"class.std::ios_base::Init"* @_ZStL8__ioinit)
  %1 = call i32 @__cxa_atexit(void (i8*)* bitcast (void (%"class.std::ios_base::Init"*)* @_ZNSt8ios_base4InitD1Ev to void (i8*)*), i8* getelementptr inbounds (%"class.std::ios_base::Init", %"class.std::ios_base::Init"* @_ZStL8__ioinit, i32 0, i32 0), i8* @__dso_handle) #3
  ret void
}

declare dso_local void @_ZNSt8ios_base4InitC1Ev(%"class.std::ios_base::Init"*) unnamed_addr #1

; Function Attrs: nounwind
declare dso_local void @_ZNSt8ios_base4InitD1Ev(%"class.std::ios_base::Init"*) unnamed_addr #2

; Function Attrs: nounwind
declare dso_local i32 @__cxa_atexit(void (i8*)*, i8*, i8*) #3

; Function Attrs: noinline norecurse uwtable
define dso_local i32 @main() #4 {
  %1 = alloca i32, align 4
  %2 = alloca i32, align 4
  %3 = alloca [120 x i32], align 16
  %4 = alloca i32, align 4
  %5 = alloca i32, align 4
  %6 = alloca i32*, align 8
  store i32 0, i32* %1, align 4
  store i32* null, i32** %6, align 8
  %7 = getelementptr inbounds [120 x i32], [120 x i32]* %3, i64 0, i64 0
  store i32* %7, i32** %6, align 8
  %8 = call dereferenceable(280) %"class.std::basic_istream"* @_ZNSirsERi(%"class.std::basic_istream"* @_ZSt3cin, i32* dereferenceable(4) %2)
  store i32 0, i32* %4, align 4
  br label %9

9:                                                ; preds = %18, %0
  %10 = load i32, i32* %4, align 4
  %11 = load i32, i32* %2, align 4
  %12 = icmp slt i32 %10, %11
  br i1 %12, label %13, label %21

13:                                               ; preds = %9
  %14 = load i32, i32* %4, align 4
  %15 = sext i32 %14 to i64
  %16 = getelementptr inbounds [120 x i32], [120 x i32]* %3, i64 0, i64 %15
  %17 = call dereferenceable(280) %"class.std::basic_istream"* @_ZNSirsERi(%"class.std::basic_istream"* @_ZSt3cin, i32* dereferenceable(4) %16)
  br label %18

18:                                               ; preds = %13
  %19 = load i32, i32* %4, align 4
  %20 = add nsw i32 %19, 1
  store i32 %20, i32* %4, align 4
  br label %9

21:                                               ; preds = %9
  store i32 0, i32* %4, align 4
  br label %22

22:                                               ; preds = %57, %21
  %23 = load i32, i32* %4, align 4
  %24 = load i32, i32* %2, align 4
  %25 = sdiv i32 %24, 2
  %26 = icmp slt i32 %23, %25
  br i1 %26, label %27, label %60

27:                                               ; preds = %22
  %28 = load i32*, i32** %6, align 8
  %29 = load i32, i32* %4, align 4
  %30 = sext i32 %29 to i64
  %31 = getelementptr inbounds i32, i32* %28, i64 %30
  %32 = load i32, i32* %31, align 4
  store i32 %32, i32* %5, align 4
  %33 = load i32*, i32** %6, align 8
  %34 = load i32, i32* %2, align 4
  %35 = sext i32 %34 to i64
  %36 = getelementptr inbounds i32, i32* %33, i64 %35
  %37 = getelementptr inbounds i32, i32* %36, i64 -1
  %38 = load i32, i32* %4, align 4
  %39 = sext i32 %38 to i64
  %40 = sub i64 0, %39
  %41 = getelementptr inbounds i32, i32* %37, i64 %40
  %42 = load i32, i32* %41, align 4
  %43 = load i32*, i32** %6, align 8
  %44 = load i32, i32* %4, align 4
  %45 = sext i32 %44 to i64
  %46 = getelementptr inbounds i32, i32* %43, i64 %45
  store i32 %42, i32* %46, align 4
  %47 = load i32, i32* %5, align 4
  %48 = load i32*, i32** %6, align 8
  %49 = load i32, i32* %2, align 4
  %50 = sext i32 %49 to i64
  %51 = getelementptr inbounds i32, i32* %48, i64 %50
  %52 = getelementptr inbounds i32, i32* %51, i64 -1
  %53 = load i32, i32* %4, align 4
  %54 = sext i32 %53 to i64
  %55 = sub i64 0, %54
  %56 = getelementptr inbounds i32, i32* %52, i64 %55
  store i32 %47, i32* %56, align 4
  br label %57

57:                                               ; preds = %27
  %58 = load i32, i32* %4, align 4
  %59 = add nsw i32 %58, 1
  store i32 %59, i32* %4, align 4
  br label %22

60:                                               ; preds = %22
  %61 = getelementptr inbounds [120 x i32], [120 x i32]* %3, i64 0, i64 0
  %62 = load i32, i32* %61, align 16
  %63 = call dereferenceable(272) %"class.std::basic_ostream"* @_ZNSolsEi(%"class.std::basic_ostream"* @_ZSt4cout, i32 %62)
  store i32 1, i32* %4, align 4
  br label %64

64:                                               ; preds = %75, %60
  %65 = load i32, i32* %4, align 4
  %66 = load i32, i32* %2, align 4
  %67 = icmp slt i32 %65, %66
  br i1 %67, label %68, label %78

68:                                               ; preds = %64
  %69 = call dereferenceable(272) %"class.std::basic_ostream"* @_ZStlsISt11char_traitsIcEERSt13basic_ostreamIcT_ES5_c(%"class.std::basic_ostream"* dereferenceable(272) @_ZSt4cout, i8 signext 32)
  %70 = load i32, i32* %4, align 4
  %71 = sext i32 %70 to i64
  %72 = getelementptr inbounds [120 x i32], [120 x i32]* %3, i64 0, i64 %71
  %73 = load i32, i32* %72, align 4
  %74 = call dereferenceable(272) %"class.std::basic_ostream"* @_ZNSolsEi(%"class.std::basic_ostream"* %69, i32 %73)
  br label %75

75:                                               ; preds = %68
  %76 = load i32, i32* %4, align 4
  %77 = add nsw i32 %76, 1
  store i32 %77, i32* %4, align 4
  br label %64

78:                                               ; preds = %64
  ret i32 0
}

declare dso_local dereferenceable(280) %"class.std::basic_istream"* @_ZNSirsERi(%"class.std::basic_istream"*, i32* dereferenceable(4)) #1

declare dso_local dereferenceable(272) %"class.std::basic_ostream"* @_ZNSolsEi(%"class.std::basic_ostream"*, i32) #1

declare dso_local dereferenceable(272) %"class.std::basic_ostream"* @_ZStlsISt11char_traitsIcEERSt13basic_ostreamIcT_ES5_c(%"class.std::basic_ostream"* dereferenceable(272), i8 signext) #1

; Function Attrs: noinline uwtable
define internal void @_GLOBAL__sub_I_5691.cpp() #0 section ".text.startup" {
  call void @__cxx_global_var_init()
  ret void
}


!llvm.module.flags = !{!0}
!llvm.ident = !{!1}

!0 = !{i32 1, !"wchar_size", i32 4}
!1 = !{!"clang version 10.0.0-4ubuntu1 "}
